target datalayout = "e-m:e-p270:32:32-p271:32:32-p272:64:64-i64:64-i128:128-f80:128-n8:16:32:64-S128"
target triple = "x86_64-pc-linux-gnu"

%struct.Aes = type { [60 x i32], i32, i32, [8 x i8], [4 x i32], [4 x i32], [2 x i32], i32, [4 x i8], %struct.Gcm, ptr, [8 x i8] }
%struct.Gcm = type { [16 x i8], [32 x [16 x i8]] }

; Function Attrs: nounwind uwtable
define i32 @wc_AesGetKeySize(ptr noundef %0, ptr noundef %1) #0 {
  %3 = alloca i32, align 4
  %4 = alloca ptr, align 8
  %5 = alloca ptr, align 8
  %6 = alloca i32, align 4
  %7 = alloca i32, align 4
  store ptr %0, ptr %4, align 8, !tbaa !3
  store ptr %1, ptr %5, align 8, !tbaa !46
  call void @llvm.lifetime.start.p0(i64 4, ptr %6) #6
  store i32 0, ptr %6, align 4, !tbaa !10
  %8 = load ptr, ptr %4, align 8, !tbaa !3
  %9 = icmp eq ptr %8, null
  br i1 %9, label %13, label %10

10:                                               ; preds = %2
  %11 = load ptr, ptr %5, align 8, !tbaa !46
  %12 = icmp eq ptr %11, null
  br i1 %12, label %13, label %14

13:                                               ; preds = %10, %2
  store i32 -173, ptr %3, align 4
  store i32 1, ptr %7, align 4
  br label %28

14:                                               ; preds = %10
  %15 = load ptr, ptr %4, align 8, !tbaa !3
  %16 = getelementptr inbounds nuw %struct.Aes, ptr %15, i32 0, i32 1
  %17 = load i32, ptr %16, align 16, !tbaa !15
  switch i32 %17, label %24 [
    i32 10, label %18
    i32 12, label %20
    i32 14, label %22
  ]

18:                                               ; preds = %14
  %19 = load ptr, ptr %5, align 8, !tbaa !46
  store i32 16, ptr %19, align 4, !tbaa !10
  br label %26

20:                                               ; preds = %14
  %21 = load ptr, ptr %5, align 8, !tbaa !46
  store i32 24, ptr %21, align 4, !tbaa !10
  br label %26

22:                                               ; preds = %14
  %23 = load ptr, ptr %5, align 8, !tbaa !46
  store i32 32, ptr %23, align 4, !tbaa !10
  br label %26

24:                                               ; preds = %14
  %25 = load ptr, ptr %5, align 8, !tbaa !46
  store i32 0, ptr %25, align 4, !tbaa !10
  store i32 -173, ptr %6, align 4, !tbaa !10
  br label %26

26:                                               ; preds = %24, %22, %20, %18
  %27 = load i32, ptr %6, align 4, !tbaa !10
  store i32 %27, ptr %3, align 4
  store i32 1, ptr %7, align 4
  br label %28

28:                                               ; preds = %26, %13
  call void @llvm.lifetime.end.p0(i64 4, ptr %6) #6
  %29 = load i32, ptr %3, align 4
  ret i32 %29
}