; Function Attrs: mustprogress nofree norecurse nosync nounwind willreturn memory(argmem: readwrite) uwtable
define range(i32 -173, 1) i32 @wc_AesGetKeySize(ptr noundef readonly captures(address_is_null) %0, ptr noundef writeonly captures(address_is_null) %1) local_unnamed_addr #1 {
  %3 = icmp eq ptr %0, null
  %4 = icmp eq ptr %1, null
  %or.cond = or i1 %3, %4
  br i1 %or.cond, label %11, label %5

5:                                                ; preds = %2
  %6 = getelementptr inbounds nuw i8, ptr %0, i64 240
  %7 = load i32, ptr %6, align 16, !tbaa !10
  %switch.tableidx = add i32 %7, -10
  %8 = icmp ult i32 %switch.tableidx, 5
  br i1 %8, label %switch.lookup, label %.sink.split

switch.lookup:                                    ; preds = %5
  %9 = zext nneg i32 %switch.tableidx to i64
  %switch.gep = getelementptr inbounds nuw [5 x i32], ptr @switch.table.wc_AesGetKeySize, i64 0, i64 %9
  %switch.load = load i32, ptr %switch.gep, align 4
  %10 = zext nneg i32 %switch.tableidx to i64
  %switch.gep12 = getelementptr inbounds nuw [5 x i32], ptr @switch.table.wc_AesGetKeySize.1, i64 0, i64 %10
  %switch.load13 = load i32, ptr %switch.gep12, align 4
  br label %.sink.split

.sink.split:                                      ; preds = %5, %switch.lookup
  %.sink = phi i32 [ %switch.load, %switch.lookup ], [ 0, %5 ]
  %.09.ph = phi i32 [ %switch.load13, %switch.lookup ], [ -173, %5 ]
  store i32 %.sink, ptr %1, align 4, !tbaa !11
  br label %11

11:                                               ; preds = %.sink.split, %2
  %.09 = phi i32 [ -173, %2 ], [ %.09.ph, %.sink.split ]
  ret i32 %.09
}